target datalayout = "e-m:e-p270:32:32-p271:32:32-p272:64:64-i64:64-i128:128-f80:128-n8:16:32:64-S128"
target triple = "x86_64-pc-linux-gnu"

%struct.JsonManifestParseState = type { ptr, i32, i32, ptr, ptr, ptr, ptr, i32, ptr, i32, ptr, ptr, ptr, i8, ptr, ptr, ptr }
%struct.JsonSemAction = type { ptr, ptr, ptr, ptr, ptr, ptr, ptr, ptr, ptr, ptr }
%struct.JsonManifestParseContext = type { ptr, ptr, ptr, ptr, ptr, ptr }

@.str.2 = private unnamed_addr constant [28 x i8] c"manifest ended unexpectedly\00", align 1
@.str.52 = private unnamed_addr constant [36 x i8] c"could not parse backup manifest: %s\00", align 1

; Function Attrs: nounwind uwtable
define internal void @json_manifest_parse_failure(ptr noundef %0, ptr noundef %1) #0 {
  %3 = alloca ptr, align 8
  %4 = alloca ptr, align 8
  store ptr %0, ptr %3, align 8
  store ptr %1, ptr %4, align 8
  %5 = load ptr, ptr %3, align 8
  %6 = getelementptr inbounds nuw %struct.JsonManifestParseContext, ptr %5, i32 0, i32 5
  %7 = load ptr, ptr %6, align 8
  %8 = load ptr, ptr %3, align 8
  %9 = load ptr, ptr %4, align 8
  call void (ptr, ptr, ...) %7(ptr noundef %8, ptr noundef @.str.52, ptr noundef %9) #6
  unreachable
}

; Function Attrs: nounwind uwtable
define dso_local void @json_parse_manifest(ptr noundef %0, ptr noundef %1, i64 noundef %2) #0 {
  %4 = alloca ptr, align 8
  %5 = alloca ptr, align 8
  %6 = alloca i64, align 8
  %7 = alloca ptr, align 8
  %8 = alloca i32, align 4
  %9 = alloca %struct.JsonSemAction, align 8
  %10 = alloca %struct.JsonManifestParseState, align 8
  store ptr %0, ptr %4, align 8
  store ptr %1, ptr %5, align 8
  store i64 %2, ptr %6, align 8
  call void @llvm.lifetime.start.p0(i64 8, ptr %7) #5
  call void @llvm.lifetime.start.p0(i64 4, ptr %8) #5
  call void @llvm.lifetime.start.p0(i64 80, ptr %9) #5
  call void @llvm.lifetime.start.p0(i64 128, ptr %10) #5
  %11 = load ptr, ptr %4, align 8
  %12 = getelementptr inbounds nuw %struct.JsonManifestParseState, ptr %10, i32 0, i32 0
  store ptr %11, ptr %12, align 8
  %13 = getelementptr inbounds nuw %struct.JsonManifestParseState, ptr %10, i32 0, i32 1
  store i32 0, ptr %13, align 8
  %14 = getelementptr inbounds nuw %struct.JsonManifestParseState, ptr %10, i32 0, i32 13
  store i8 0, ptr %14, align 8
  %15 = load ptr, ptr %5, align 8
  %16 = load i64, ptr %6, align 8
  %17 = call ptr @makeJsonLexContextCstringLen(ptr noundef null, ptr noundef %15, i64 noundef %16, i32 noundef 6, i1 noundef zeroext true)
  store ptr %17, ptr %7, align 8
  %18 = getelementptr inbounds nuw %struct.JsonSemAction, ptr %9, i32 0, i32 0
  store ptr %10, ptr %18, align 8
  %19 = getelementptr inbounds nuw %struct.JsonSemAction, ptr %9, i32 0, i32 1
  store ptr @json_manifest_object_start, ptr %19, align 8
  %20 = getelementptr inbounds nuw %struct.JsonSemAction, ptr %9, i32 0, i32 2
  store ptr @json_manifest_object_end, ptr %20, align 8
  %21 = getelementptr inbounds nuw %struct.JsonSemAction, ptr %9, i32 0, i32 3
  store ptr @json_manifest_array_start, ptr %21, align 8
  %22 = getelementptr inbounds nuw %struct.JsonSemAction, ptr %9, i32 0, i32 4
  store ptr @json_manifest_array_end, ptr %22, align 8
  %23 = getelementptr inbounds nuw %struct.JsonSemAction, ptr %9, i32 0, i32 5
  store ptr @json_manifest_object_field_start, ptr %23, align 8
  %24 = getelementptr inbounds nuw %struct.JsonSemAction, ptr %9, i32 0, i32 6
  store ptr null, ptr %24, align 8
  %25 = getelementptr inbounds nuw %struct.JsonSemAction, ptr %9, i32 0, i32 7
  store ptr null, ptr %25, align 8
  %26 = getelementptr inbounds nuw %struct.JsonSemAction, ptr %9, i32 0, i32 8
  store ptr null, ptr %26, align 8
  %27 = getelementptr inbounds nuw %struct.JsonSemAction, ptr %9, i32 0, i32 9
  store ptr @json_manifest_scalar, ptr %27, align 8
  %28 = load ptr, ptr %7, align 8
  %29 = call i32 @pg_parse_json(ptr noundef %28, ptr noundef %9)
  store i32 %29, ptr %8, align 4
  %30 = load i32, ptr %8, align 4
  %31 = icmp ne i32 %30, 0
  br i1 %31, label %32, label %37

32:                                               ; preds = %3
  %33 = load ptr, ptr %4, align 8
  %34 = load i32, ptr %8, align 4
  %35 = load ptr, ptr %7, align 8
  %36 = call ptr @json_errdetail(i32 noundef %34, ptr noundef %35)
  call void @json_manifest_parse_failure(ptr noundef %33, ptr noundef %36)
  br label %37

37:                                               ; preds = %32, %3
  %38 = getelementptr inbounds nuw %struct.JsonManifestParseState, ptr %10, i32 0, i32 1
  %39 = load i32, ptr %38, align 8
  %40 = icmp ne i32 %39, 14
  br i1 %40, label %41, label %43

41:                                               ; preds = %37
  %42 = load ptr, ptr %4, align 8
  call void @json_manifest_parse_failure(ptr noundef %42, ptr noundef @.str.2)
  br label %43

43:                                               ; preds = %41, %37
  %44 = load ptr, ptr %5, align 8
  %45 = load i64, ptr %6, align 8
  call void @verify_manifest_checksum(ptr noundef %10, ptr noundef %44, i64 noundef %45, ptr noundef null)
  %46 = load ptr, ptr %7, align 8
  call void @freeJsonLexContext(ptr noundef %46)
  call void @llvm.lifetime.end.p0(i64 128, ptr %10) #5
  call void @llvm.lifetime.end.p0(i64 80, ptr %9) #5
  call void @llvm.lifetime.end.p0(i64 4, ptr %8) #5
  call void @llvm.lifetime.end.p0(i64 8, ptr %7) #5
  ret void
}