; Function Attrs: nounwind uwtable
define dso_local void @json_parse_manifest(ptr noundef %0, ptr noundef %1, i64 noundef %2) local_unnamed_addr #0 {
  %4 = alloca %struct.JsonSemAction, align 8
  %5 = alloca %struct.JsonManifestParseState, align 8
  call void @llvm.lifetime.start.p0(i64 80, ptr nonnull %4) #8
  call void @llvm.lifetime.start.p0(i64 128, ptr nonnull %5) #8
  store ptr %0, ptr %5, align 8
  %6 = getelementptr inbounds nuw i8, ptr %5, i64 8
  store i32 0, ptr %6, align 8
  %7 = getelementptr inbounds nuw i8, ptr %5, i64 96
  store i8 0, ptr %7, align 8
  %8 = tail call ptr @makeJsonLexContextCstringLen(ptr noundef null, ptr noundef %1, i64 noundef %2, i32 noundef 6, i1 noundef zeroext true) #8
  store ptr %5, ptr %4, align 8
  %9 = getelementptr inbounds nuw i8, ptr %4, i64 8
  store ptr @json_manifest_object_start, ptr %9, align 8
  %10 = getelementptr inbounds nuw i8, ptr %4, i64 16
  store ptr @json_manifest_object_end, ptr %10, align 8
  %11 = getelementptr inbounds nuw i8, ptr %4, i64 24
  store ptr @json_manifest_array_start, ptr %11, align 8
  %12 = getelementptr inbounds nuw i8, ptr %4, i64 32
  store ptr @json_manifest_array_end, ptr %12, align 8
  %13 = getelementptr inbounds nuw i8, ptr %4, i64 40
  store ptr @json_manifest_object_field_start, ptr %13, align 8
  %14 = getelementptr inbounds nuw i8, ptr %4, i64 48
  %15 = getelementptr inbounds nuw i8, ptr %4, i64 72
  call void @llvm.memset.p0.i64(ptr noundef nonnull align 8 dereferenceable(24) %14, i8 0, i64 24, i1 false)
  store ptr @json_manifest_scalar, ptr %15, align 8
  %16 = call i32 @pg_parse_json(ptr noundef %8, ptr noundef nonnull %4) #8
  %.not = icmp eq i32 %16, 0
  br i1 %.not, label %21, label %17

17:                                               ; preds = %3
  %18 = call ptr @json_errdetail(i32 noundef %16, ptr noundef %8) #8
  %19 = getelementptr inbounds nuw i8, ptr %0, i64 40
  %20 = load ptr, ptr %19, align 8
  call void (ptr, ptr, ...) %20(ptr noundef %0, ptr noundef nonnull @.str.52, ptr noundef %18) #9
  unreachable

21:                                               ; preds = %3
  %22 = load i32, ptr %6, align 8
  %.not11 = icmp eq i32 %22, 14
  br i1 %.not11, label %26, label %23

23:                                               ; preds = %21
  %24 = getelementptr inbounds nuw i8, ptr %0, i64 40
  %25 = load ptr, ptr %24, align 8
  call void (ptr, ptr, ...) %25(ptr noundef %0, ptr noundef nonnull @.str.52, ptr noundef nonnull @.str.2) #9
  unreachable

26:                                               ; preds = %21
  call fastcc void @verify_manifest_checksum(ptr noundef nonnull %5, ptr noundef %1, i64 noundef %2, ptr noundef null)
  call void @freeJsonLexContext(ptr noundef %8) #8
  call void @llvm.lifetime.end.p0(i64 128, ptr nonnull %5) #8
  call void @llvm.lifetime.end.p0(i64 80, ptr nonnull %4) #8
  ret void
}